target datalayout = "e-m:e-p270:32:32-p271:32:32-p272:64:64-i64:64-i128:128-f80:128-n8:16:32:64-S128"
target triple = "x86_64-pc-linux-gnu"

@.str.18 = private unnamed_addr constant [28 x i8] c"const_mul//macc_spec_%03d.v\00", align 1
@.str.19 = private unnamed_addr constant [3 x i8] c"wb\00", align 1

; Function Attrs: nounwind uwtable
define void @Macc_ConstMultSpecTest() #0 {
  %1 = alloca i32, align 4
  %2 = alloca i32, align 4
  %3 = alloca i32, align 4
  %4 = alloca i32, align 4
  %5 = alloca [100 x i8], align 16
  %6 = alloca ptr, align 8
  call void @llvm.lifetime.start.p0(i64 4, ptr %1) #9
  store i32 8, ptr %1, align 4, !tbaa !8
  call void @llvm.lifetime.start.p0(i64 4, ptr %2) #9
  store i32 16, ptr %2, align 4, !tbaa !8
  call void @llvm.lifetime.start.p0(i64 4, ptr %3) #9
  %7 = load i32, ptr %1, align 4, !tbaa !8
  %8 = sub nsw i32 %7, 1
  %9 = shl i32 1, %8
  store i32 %9, ptr %3, align 4, !tbaa !8
  call void @llvm.lifetime.start.p0(i64 4, ptr %4) #9
  call void @llvm.lifetime.start.p0(i64 100, ptr %5) #9
  call void @llvm.lifetime.start.p0(i64 8, ptr %6) #9
  %10 = load i32, ptr %3, align 4, !tbaa !8
  %11 = sub nsw i32 0, %10
  store i32 %11, ptr %4, align 4, !tbaa !8
  br label %12

12:                                               ; preds = %29, %0
  %13 = load i32, ptr %4, align 4, !tbaa !8
  %14 = load i32, ptr %3, align 4, !tbaa !8
  %15 = icmp slt i32 %13, %14
  br i1 %15, label %16, label %32

16:                                               ; preds = %12
  %17 = getelementptr inbounds [100 x i8], ptr %5, i64 0, i64 0
  %18 = load i32, ptr %4, align 4, !tbaa !8
  %19 = and i32 255, %18
  %20 = call i32 (ptr, ptr, ...) @sprintf(ptr noundef %17, ptr noundef @.str.18, i32 noundef %19) #9
  %21 = getelementptr inbounds [100 x i8], ptr %5, i64 0, i64 0
  %22 = call noalias ptr @fopen(ptr noundef %21, ptr noundef @.str.19)
  store ptr %22, ptr %6, align 8, !tbaa !3
  %23 = load ptr, ptr %6, align 8, !tbaa !3
  %24 = load i32, ptr %4, align 4, !tbaa !8
  %25 = load i32, ptr %1, align 4, !tbaa !8
  %26 = load i32, ptr %2, align 4, !tbaa !8
  call void @Macc_ConstMultSpecOne2(ptr noundef %23, i32 noundef %24, i32 noundef %25, i32 noundef %26)
  %27 = load ptr, ptr %6, align 8, !tbaa !3
  %28 = call i32 @fclose(ptr noundef %27)
  br label %29

29:                                               ; preds = %16
  %30 = load i32, ptr %4, align 4, !tbaa !8
  %31 = add nsw i32 %30, 1
  store i32 %31, ptr %4, align 4, !tbaa !8
  br label %12, !llvm.loop !10

32:                                               ; preds = %12
  call void @llvm.lifetime.end.p0(i64 8, ptr %6) #9
  call void @llvm.lifetime.end.p0(i64 100, ptr %5) #9
  call void @llvm.lifetime.end.p0(i64 4, ptr %4) #9
  call void @llvm.lifetime.end.p0(i64 4, ptr %3) #9
  call void @llvm.lifetime.end.p0(i64 4, ptr %2) #9
  call void @llvm.lifetime.end.p0(i64 4, ptr %1) #9
  ret void
}