; Function Attrs: nounwind uwtable
define void @Macc_ConstMultSpecTest() local_unnamed_addr #0 {
  %1 = alloca [100 x i8], align 16
  call void @llvm.lifetime.start.p0(i64 100, ptr nonnull %1) #12
  br label %2

2:                                                ; preds = %0, %2
  %.010 = phi i32 [ -128, %0 ], [ %7, %2 ]
  %3 = and i32 %.010, 255
  %4 = call i32 (ptr, ptr, ...) @sprintf(ptr noundef nonnull dereferenceable(1) %1, ptr noundef nonnull dereferenceable(1) @.str.18, i32 noundef %3) #12
  %5 = call noalias ptr @fopen(ptr noundef nonnull %1, ptr noundef nonnull @.str.19)
  tail call void @Macc_ConstMultSpecOne2(ptr noundef %5, i32 noundef %.010, i32 noundef 8, i32 noundef 16)
  %6 = tail call i32 @fclose(ptr noundef %5)
  %7 = add nsw i32 %.010, 1
  %exitcond.not = icmp eq i32 %7, 128
  br i1 %exitcond.not, label %8, label %2, !llvm.loop !3

8:                                                ; preds = %2
  call void @llvm.lifetime.end.p0(i64 100, ptr nonnull %1) #12
  ret void
}